target datalayout = "e-m:e-p270:32:32-p271:32:32-p272:64:64-i64:64-i128:128-f80:128-n8:16:32:64-S128"
target triple = "x86_64-pc-linux-gnu"

%"class.Luau::(anonymous namespace)::TypeCloner" = type <{ %"struct.Luau::NotNull", %"struct.Luau::NotNull.1", %"class.std::vector", %"struct.Luau::NotNull.2", %"struct.Luau::NotNull.3", ptr, ptr, i32, [4 x i8] }>
%"struct.Luau::NotNull" = type { ptr }
%"struct.Luau::NotNull.1" = type { ptr }
%"class.std::vector" = type { %"struct.std::_Vector_base" }
%"struct.std::_Vector_base" = type { %"struct.std::_Vector_base<Luau::Variant<const Luau::Type *, const Luau::TypePackVar *>, std::allocator<Luau::Variant<const Luau::Type *, const Luau::TypePackVar *>>>::_Vector_impl" }
%"struct.std::_Vector_base<Luau::Variant<const Luau::Type *, const Luau::TypePackVar *>, std::allocator<Luau::Variant<const Luau::Type *, const Luau::TypePackVar *>>>::_Vector_impl" = type { %"struct.std::_Vector_base<Luau::Variant<const Luau::Type *, const Luau::TypePackVar *>, std::allocator<Luau::Variant<const Luau::Type *, const Luau::TypePackVar *>>>::_Vector_impl_data" }
%"struct.std::_Vector_base<Luau::Variant<const Luau::Type *, const Luau::TypePackVar *>, std::allocator<Luau::Variant<const Luau::Type *, const Luau::TypePackVar *>>>::_Vector_impl_data" = type { ptr, ptr, ptr }
%"struct.Luau::NotNull.2" = type { ptr }
%"struct.Luau::NotNull.3" = type { ptr }
%"class.Luau::Variant.73" = type { i32, [4 x i8], [8 x i8] }

@_ZN4Luau7VariantIJPKNS_4TypeEPKNS_11TypePackVarEEE9tableDtorE = linkonce_odr dso_local constant [2 x ptr] [ptr @_ZN4Luau7VariantIJPKNS_4TypeEPKNS_11TypePackVarEEE6fnDtorIS3_EEvPv, ptr @_ZN4Luau7VariantIJPKNS_4TypeEPKNS_11TypePackVarEEE6fnDtorIS6_EEvPv], comdat, align 16

; Function Attrs: mustprogress nounwind uwtable
define linkonce_odr dso_local void @_ZN4Luau7VariantIJPKNS_4TypeEPKNS_11TypePackVarEEED2Ev(ptr noundef nonnull align 8 dereferenceable(16) %0) unnamed_addr #2 comdat align 2 personality ptr @__gxx_personality_v0 {
  %2 = alloca ptr, align 8
  store ptr %0, ptr %2, align 8, !tbaa !229
  %3 = load ptr, ptr %2, align 8
  %4 = getelementptr inbounds nuw %"class.Luau::Variant.73", ptr %3, i32 0, i32 0
  %5 = load i32, ptr %4, align 8, !tbaa !230
  %6 = sext i32 %5 to i64
  %7 = getelementptr inbounds [2 x ptr], ptr @_ZN4Luau7VariantIJPKNS_4TypeEPKNS_11TypePackVarEEE9tableDtorE, i64 0, i64 %6
  %8 = load ptr, ptr %7, align 8, !tbaa !228
  %9 = getelementptr inbounds nuw %"class.Luau::Variant.73", ptr %3, i32 0, i32 2
  invoke void %8(ptr noundef %9)
          to label %10 unwind label %11

10:                                               ; preds = %1
  ret void

11:                                               ; preds = %1
  %12 = landingpad { ptr, i32 }
          catch ptr null
  %13 = extractvalue { ptr, i32 } %12, 0
  call void @__clang_call_terminate(ptr %13) #19
  unreachable
}

; Function Attrs: mustprogress nounwind uwtable
define linkonce_odr dso_local void @_ZNSt15__new_allocatorIN4Luau7VariantIJPKNS0_4TypeEPKNS0_11TypePackVarEEEEE10deallocateEPS8_m(ptr noundef nonnull align 1 dereferenceable(1) %0, ptr noundef %1, i64 noundef %2) #2 comdat align 2 {
  %4 = alloca ptr, align 8
  %5 = alloca ptr, align 8
  %6 = alloca i64, align 8
  store ptr %0, ptr %4, align 8, !tbaa !223
  store ptr %1, ptr %5, align 8, !tbaa !229
  store i64 %2, ptr %6, align 8, !tbaa !243
  %7 = load ptr, ptr %5, align 8, !tbaa !229
  %8 = load i64, ptr %6, align 8, !tbaa !243
  %9 = mul i64 %8, 16
  call void @_ZdlPvm(ptr noundef %7, i64 noundef %9) #20
  ret void
}

; Function Attrs: inlinehint mustprogress nounwind uwtable
define linkonce_odr dso_local void @_ZSt8_DestroyIN4Luau7VariantIJPKNS0_4TypeEPKNS0_11TypePackVarEEEEEvPT_(ptr noundef %0) #6 comdat {
  %2 = alloca ptr, align 8
  store ptr %0, ptr %2, align 8, !tbaa !229
  %3 = load ptr, ptr %2, align 8, !tbaa !229
  call void @_ZN4Luau7VariantIJPKNS_4TypeEPKNS_11TypePackVarEEED2Ev(ptr noundef nonnull align 8 dereferenceable(16) %3) #18
  ret void
}

; Function Attrs: mustprogress uwtable
define linkonce_odr dso_local void @_ZNSt16allocator_traitsISaIN4Luau7VariantIJPKNS0_4TypeEPKNS0_11TypePackVarEEEEEE10deallocateERS9_PS8_m(ptr noundef nonnull align 1 dereferenceable(1) %0, ptr noundef %1, i64 noundef %2) #3 comdat align 2 {
  %4 = alloca ptr, align 8
  %5 = alloca ptr, align 8
  %6 = alloca i64, align 8
  store ptr %0, ptr %4, align 8, !tbaa !216
  store ptr %1, ptr %5, align 8, !tbaa !229
  store i64 %2, ptr %6, align 8, !tbaa !243
  %7 = load ptr, ptr %4, align 8, !tbaa !216
  %8 = load ptr, ptr %5, align 8, !tbaa !229
  %9 = load i64, ptr %6, align 8, !tbaa !243
  call void @_ZNSt15__new_allocatorIN4Luau7VariantIJPKNS0_4TypeEPKNS0_11TypePackVarEEEEE10deallocateEPS8_m(ptr noundef nonnull align 1 dereferenceable(1) %7, ptr noundef %8, i64 noundef %9)
  ret void
}

; Function Attrs: mustprogress uwtable
define linkonce_odr dso_local void @_ZNSt12_Destroy_auxILb0EE9__destroyIPN4Luau7VariantIJPKNS2_4TypeEPKNS2_11TypePackVarEEEEEEvT_SC_(ptr noundef %0, ptr noundef %1) #3 comdat align 2 {
  %3 = alloca ptr, align 8
  %4 = alloca ptr, align 8
  store ptr %0, ptr %3, align 8, !tbaa !229
  store ptr %1, ptr %4, align 8, !tbaa !229
  br label %5

5:                                                ; preds = %11, %2
  %6 = load ptr, ptr %3, align 8, !tbaa !229
  %7 = load ptr, ptr %4, align 8, !tbaa !229
  %8 = icmp ne ptr %6, %7
  br i1 %8, label %9, label %14

9:                                                ; preds = %5
  %10 = load ptr, ptr %3, align 8, !tbaa !229
  call void @_ZSt8_DestroyIN4Luau7VariantIJPKNS0_4TypeEPKNS0_11TypePackVarEEEEEvPT_(ptr noundef %10)
  br label %11

11:                                               ; preds = %9
  %12 = load ptr, ptr %3, align 8, !tbaa !229
  %13 = getelementptr inbounds nuw %"class.Luau::Variant.73", ptr %12, i32 1
  store ptr %13, ptr %3, align 8, !tbaa !229
  br label %5, !llvm.loop !421

14:                                               ; preds = %5
  ret void
}

; Function Attrs: mustprogress nounwind uwtable
define linkonce_odr dso_local void @_ZNSt15__new_allocatorIN4Luau7VariantIJPKNS0_4TypeEPKNS0_11TypePackVarEEEEED2Ev(ptr noundef nonnull align 1 dereferenceable(1) %0) unnamed_addr #2 comdat align 2 {
  %2 = alloca ptr, align 8
  store ptr %0, ptr %2, align 8, !tbaa !223
  ret void
}

; Function Attrs: mustprogress uwtable
define linkonce_odr dso_local void @_ZNSt12_Vector_baseIN4Luau7VariantIJPKNS0_4TypeEPKNS0_11TypePackVarEEEESaIS8_EE13_M_deallocateEPS8_m(ptr noundef nonnull align 8 dereferenceable(24) %0, ptr noundef %1, i64 noundef %2) #3 comdat align 2 {
  %4 = alloca ptr, align 8
  %5 = alloca ptr, align 8
  %6 = alloca i64, align 8
  store ptr %0, ptr %4, align 8, !tbaa !212
  store ptr %1, ptr %5, align 8, !tbaa !229
  store i64 %2, ptr %6, align 8, !tbaa !243
  %7 = load ptr, ptr %4, align 8
  %8 = load ptr, ptr %5, align 8, !tbaa !229
  %9 = icmp ne ptr %8, null
  br i1 %9, label %10, label %14

10:                                               ; preds = %3
  %11 = getelementptr inbounds nuw %"struct.std::_Vector_base", ptr %7, i32 0, i32 0
  %12 = load ptr, ptr %5, align 8, !tbaa !229
  %13 = load i64, ptr %6, align 8, !tbaa !243
  call void @_ZNSt16allocator_traitsISaIN4Luau7VariantIJPKNS0_4TypeEPKNS0_11TypePackVarEEEEEE10deallocateERS9_PS8_m(ptr noundef nonnull align 1 dereferenceable(1) %11, ptr noundef %12, i64 noundef %13)
  br label %14

14:                                               ; preds = %10, %3
  ret void
}

; Function Attrs: inlinehint mustprogress uwtable
define linkonce_odr dso_local void @_ZSt8_DestroyIPN4Luau7VariantIJPKNS0_4TypeEPKNS0_11TypePackVarEEEEEvT_SA_(ptr noundef %0, ptr noundef %1) #7 comdat {
  %3 = alloca ptr, align 8
  %4 = alloca ptr, align 8
  store ptr %0, ptr %3, align 8, !tbaa !229
  store ptr %1, ptr %4, align 8, !tbaa !229
  %5 = load ptr, ptr %3, align 8, !tbaa !229
  %6 = load ptr, ptr %4, align 8, !tbaa !229
  call void @_ZNSt12_Destroy_auxILb0EE9__destroyIPN4Luau7VariantIJPKNS2_4TypeEPKNS2_11TypePackVarEEEEEEvT_SC_(ptr noundef %5, ptr noundef %6)
  ret void
}

; Function Attrs: mustprogress nounwind uwtable
define linkonce_odr dso_local void @_ZNSt12_Vector_baseIN4Luau7VariantIJPKNS0_4TypeEPKNS0_11TypePackVarEEEESaIS8_EED2Ev(ptr noundef nonnull align 8 dereferenceable(24) %0) unnamed_addr #2 comdat align 2 personality ptr @__gxx_personality_v0 {
  %2 = alloca ptr, align 8
  store ptr %0, ptr %2, align 8, !tbaa !212
  %3 = load ptr, ptr %2, align 8
  %4 = getelementptr inbounds nuw %"struct.std::_Vector_base", ptr %3, i32 0, i32 0
  %5 = getelementptr inbounds nuw %"struct.std::_Vector_base<Luau::Variant<const Luau::Type *, const Luau::TypePackVar *>, std::allocator<Luau::Variant<const Luau::Type *, const Luau::TypePackVar *>>>::_Vector_impl_data", ptr %4, i32 0, i32 0
  %6 = load ptr, ptr %5, align 8, !tbaa !220
  %7 = getelementptr inbounds nuw %"struct.std::_Vector_base", ptr %3, i32 0, i32 0
  %8 = getelementptr inbounds nuw %"struct.std::_Vector_base<Luau::Variant<const Luau::Type *, const Luau::TypePackVar *>, std::allocator<Luau::Variant<const Luau::Type *, const Luau::TypePackVar *>>>::_Vector_impl_data", ptr %7, i32 0, i32 2
  %9 = load ptr, ptr %8, align 8, !tbaa !222
  %10 = getelementptr inbounds nuw %"struct.std::_Vector_base", ptr %3, i32 0, i32 0
  %11 = getelementptr inbounds nuw %"struct.std::_Vector_base<Luau::Variant<const Luau::Type *, const Luau::TypePackVar *>, std::allocator<Luau::Variant<const Luau::Type *, const Luau::TypePackVar *>>>::_Vector_impl_data", ptr %10, i32 0, i32 0
  %12 = load ptr, ptr %11, align 8, !tbaa !220
  %13 = ptrtoint ptr %9 to i64
  %14 = ptrtoint ptr %12 to i64
  %15 = sub i64 %13, %14
  %16 = sdiv exact i64 %15, 16
  invoke void @_ZNSt12_Vector_baseIN4Luau7VariantIJPKNS0_4TypeEPKNS0_11TypePackVarEEEESaIS8_EE13_M_deallocateEPS8_m(ptr noundef nonnull align 8 dereferenceable(24) %3, ptr noundef %6, i64 noundef %16)
          to label %17 unwind label %19

17:                                               ; preds = %1
  %18 = getelementptr inbounds nuw %"struct.std::_Vector_base", ptr %3, i32 0, i32 0
  call void @_ZNSt15__new_allocatorIN4Luau7VariantIJPKNS0_4TypeEPKNS0_11TypePackVarEEEEED2Ev(ptr noundef nonnull align 8 dereferenceable(24) %18) #18
  ret void

19:                                               ; preds = %1
  %20 = landingpad { ptr, i32 }
          catch ptr null
  %21 = extractvalue { ptr, i32 } %20, 0
  call void @__clang_call_terminate(ptr %21) #19
  unreachable
}

; Function Attrs: inlinehint mustprogress uwtable
define linkonce_odr dso_local void @_ZSt8_DestroyIPN4Luau7VariantIJPKNS0_4TypeEPKNS0_11TypePackVarEEEES8_EvT_SA_RSaIT0_E(ptr noundef %0, ptr noundef %1, ptr noundef nonnull align 1 dereferenceable(1) %2) #7 comdat {
  %4 = alloca ptr, align 8
  %5 = alloca ptr, align 8
  %6 = alloca ptr, align 8
  store ptr %0, ptr %4, align 8, !tbaa !229
  store ptr %1, ptr %5, align 8, !tbaa !229
  store ptr %2, ptr %6, align 8, !tbaa !216
  %7 = load ptr, ptr %4, align 8, !tbaa !229
  %8 = load ptr, ptr %5, align 8, !tbaa !229
  call void @_ZSt8_DestroyIPN4Luau7VariantIJPKNS0_4TypeEPKNS0_11TypePackVarEEEEEvT_SA_(ptr noundef %7, ptr noundef %8)
  ret void
}

; Function Attrs: mustprogress nounwind uwtable
define linkonce_odr dso_local noundef nonnull align 1 dereferenceable(1) ptr @_ZNSt12_Vector_baseIN4Luau7VariantIJPKNS0_4TypeEPKNS0_11TypePackVarEEEESaIS8_EE19_M_get_Tp_allocatorEv(ptr noundef nonnull align 8 dereferenceable(24) %0) #2 comdat align 2 {
  %2 = alloca ptr, align 8
  store ptr %0, ptr %2, align 8, !tbaa !212
  %3 = load ptr, ptr %2, align 8
  %4 = getelementptr inbounds nuw %"struct.std::_Vector_base", ptr %3, i32 0, i32 0
  ret ptr %4
}

; Function Attrs: mustprogress nounwind uwtable
define linkonce_odr dso_local void @_ZNSt6vectorIN4Luau7VariantIJPKNS0_4TypeEPKNS0_11TypePackVarEEEESaIS8_EED2Ev(ptr noundef nonnull align 8 dereferenceable(24) %0) unnamed_addr #2 comdat align 2 personality ptr @__gxx_personality_v0 {
  %2 = alloca ptr, align 8
  store ptr %0, ptr %2, align 8, !tbaa !210
  %3 = load ptr, ptr %2, align 8
  %4 = getelementptr inbounds nuw %"struct.std::_Vector_base", ptr %3, i32 0, i32 0
  %5 = getelementptr inbounds nuw %"struct.std::_Vector_base<Luau::Variant<const Luau::Type *, const Luau::TypePackVar *>, std::allocator<Luau::Variant<const Luau::Type *, const Luau::TypePackVar *>>>::_Vector_impl_data", ptr %4, i32 0, i32 0
  %6 = load ptr, ptr %5, align 8, !tbaa !220
  %7 = getelementptr inbounds nuw %"struct.std::_Vector_base", ptr %3, i32 0, i32 0
  %8 = getelementptr inbounds nuw %"struct.std::_Vector_base<Luau::Variant<const Luau::Type *, const Luau::TypePackVar *>, std::allocator<Luau::Variant<const Luau::Type *, const Luau::TypePackVar *>>>::_Vector_impl_data", ptr %7, i32 0, i32 1
  %9 = load ptr, ptr %8, align 8, !tbaa !221
  %10 = call noundef nonnull align 1 dereferenceable(1) ptr @_ZNSt12_Vector_baseIN4Luau7VariantIJPKNS0_4TypeEPKNS0_11TypePackVarEEEESaIS8_EE19_M_get_Tp_allocatorEv(ptr noundef nonnull align 8 dereferenceable(24) %3) #18
  invoke void @_ZSt8_DestroyIPN4Luau7VariantIJPKNS0_4TypeEPKNS0_11TypePackVarEEEES8_EvT_SA_RSaIT0_E(ptr noundef %6, ptr noundef %9, ptr noundef nonnull align 1 dereferenceable(1) %10)
          to label %11 unwind label %12

11:                                               ; preds = %1
  call void @_ZNSt12_Vector_baseIN4Luau7VariantIJPKNS0_4TypeEPKNS0_11TypePackVarEEEESaIS8_EED2Ev(ptr noundef nonnull align 8 dereferenceable(24) %3) #18
  ret void

12:                                               ; preds = %1
  %13 = landingpad { ptr, i32 }
          catch ptr null
  %14 = extractvalue { ptr, i32 } %13, 0
  call void @__clang_call_terminate(ptr %14) #19
  unreachable
}

; Function Attrs: inlinehint mustprogress nounwind uwtable
define internal void @_ZN4Luau12_GLOBAL__N_110TypeClonerD2Ev(ptr noundef nonnull align 8 dereferenceable(76) %0) unnamed_addr #6 align 2 {
  %2 = alloca ptr, align 8
  store ptr %0, ptr %2, align 8, !tbaa !54
  %3 = load ptr, ptr %2, align 8
  %4 = getelementptr inbounds nuw %"class.Luau::(anonymous namespace)::TypeCloner", ptr %3, i32 0, i32 2
  call void @_ZNSt6vectorIN4Luau7VariantIJPKNS0_4TypeEPKNS0_11TypePackVarEEEESaIS8_EED2Ev(ptr noundef nonnull align 8 dereferenceable(24) %4) #18
  ret void
}