; Function Attrs: inlinehint mustprogress nounwind uwtable
define internal fastcc void @_ZN4Luau12_GLOBAL__N_110TypeClonerD2Ev(ptr noundef nonnull readonly align 8 captures(none) dereferenceable(76) %0) unnamed_addr #4 align 2 personality ptr @__gxx_personality_v0 {
  %2 = getelementptr inbounds nuw i8, ptr %0, i64 16
  %3 = load ptr, ptr %2, align 8, !tbaa !38
  %4 = getelementptr inbounds nuw i8, ptr %0, i64 24
  %5 = load ptr, ptr %4, align 8, !tbaa !39
  %.not4.i.i.i.i = icmp eq ptr %3, %5
  br i1 %.not4.i.i.i.i, label %_ZSt8_DestroyIPN4Luau7VariantIJPKNS0_4TypeEPKNS0_11TypePackVarEEEES8_EvT_SA_RSaIT0_E.exit.i, label %.lr.ph.i.i.i.i

.lr.ph.i.i.i.i:                                   ; preds = %1, %_ZSt8_DestroyIN4Luau7VariantIJPKNS0_4TypeEPKNS0_11TypePackVarEEEEEvPT_.exit.i.i.i.i
  %.05.i.i.i.i = phi ptr [ %14, %_ZSt8_DestroyIN4Luau7VariantIJPKNS0_4TypeEPKNS0_11TypePackVarEEEEEvPT_.exit.i.i.i.i ], [ %3, %1 ]
  %6 = load i32, ptr %.05.i.i.i.i, align 8, !tbaa !40
  %7 = sext i32 %6 to i64
  %8 = getelementptr inbounds [2 x ptr], ptr @_ZN4Luau7VariantIJPKNS_4TypeEPKNS_11TypePackVarEEE9tableDtorE, i64 0, i64 %7
  %9 = load ptr, ptr %8, align 8, !tbaa !42
  %10 = getelementptr inbounds nuw i8, ptr %.05.i.i.i.i, i64 8
  invoke void %9(ptr noundef nonnull %10)
          to label %_ZSt8_DestroyIN4Luau7VariantIJPKNS0_4TypeEPKNS0_11TypePackVarEEEEEvPT_.exit.i.i.i.i unwind label %11

11:                                               ; preds = %.lr.ph.i.i.i.i
  %12 = landingpad { ptr, i32 }
          catch ptr null
  %13 = extractvalue { ptr, i32 } %12, 0
  tail call void @__clang_call_terminate(ptr %13) #21
  unreachable

_ZSt8_DestroyIN4Luau7VariantIJPKNS0_4TypeEPKNS0_11TypePackVarEEEEEvPT_.exit.i.i.i.i: ; preds = %.lr.ph.i.i.i.i
  %14 = getelementptr inbounds nuw i8, ptr %.05.i.i.i.i, i64 16
  %.not.i.i.i.i = icmp eq ptr %14, %5
  br i1 %.not.i.i.i.i, label %_ZSt8_DestroyIPN4Luau7VariantIJPKNS0_4TypeEPKNS0_11TypePackVarEEEES8_EvT_SA_RSaIT0_E.exitthread-pre-split.i, label %.lr.ph.i.i.i.i, !llvm.loop !43

_ZSt8_DestroyIPN4Luau7VariantIJPKNS0_4TypeEPKNS0_11TypePackVarEEEES8_EvT_SA_RSaIT0_E.exitthread-pre-split.i: ; preds = %_ZSt8_DestroyIN4Luau7VariantIJPKNS0_4TypeEPKNS0_11TypePackVarEEEEEvPT_.exit.i.i.i.i
  %.pr.i = load ptr, ptr %2, align 8, !tbaa !38
  br label %_ZSt8_DestroyIPN4Luau7VariantIJPKNS0_4TypeEPKNS0_11TypePackVarEEEES8_EvT_SA_RSaIT0_E.exit.i

_ZSt8_DestroyIPN4Luau7VariantIJPKNS0_4TypeEPKNS0_11TypePackVarEEEES8_EvT_SA_RSaIT0_E.exit.i: ; preds = %_ZSt8_DestroyIPN4Luau7VariantIJPKNS0_4TypeEPKNS0_11TypePackVarEEEES8_EvT_SA_RSaIT0_E.exitthread-pre-split.i, %1
  %15 = phi ptr [ %.pr.i, %_ZSt8_DestroyIPN4Luau7VariantIJPKNS0_4TypeEPKNS0_11TypePackVarEEEES8_EvT_SA_RSaIT0_E.exitthread-pre-split.i ], [ %3, %1 ]
  %.not.i.i.i = icmp eq ptr %15, null
  br i1 %.not.i.i.i, label %_ZNSt6vectorIN4Luau7VariantIJPKNS0_4TypeEPKNS0_11TypePackVarEEEESaIS8_EED2Ev.exit, label %16

16:                                               ; preds = %_ZSt8_DestroyIPN4Luau7VariantIJPKNS0_4TypeEPKNS0_11TypePackVarEEEES8_EvT_SA_RSaIT0_E.exit.i
  %17 = getelementptr inbounds nuw i8, ptr %0, i64 32
  %18 = load ptr, ptr %17, align 8, !tbaa !45
  %19 = ptrtoint ptr %18 to i64
  %20 = ptrtoint ptr %15 to i64
  %21 = sub i64 %19, %20
  tail call void @_ZdlPvm(ptr noundef nonnull %15, i64 noundef %21) #22
  br label %_ZNSt6vectorIN4Luau7VariantIJPKNS0_4TypeEPKNS0_11TypePackVarEEEESaIS8_EED2Ev.exit

_ZNSt6vectorIN4Luau7VariantIJPKNS0_4TypeEPKNS0_11TypePackVarEEEESaIS8_EED2Ev.exit: ; preds = %_ZSt8_DestroyIPN4Luau7VariantIJPKNS0_4TypeEPKNS0_11TypePackVarEEEES8_EvT_SA_RSaIT0_E.exit.i, %16
  ret void
}